target datalayout = "e-m:e-p270:32:32-p271:32:32-p272:64:64-i64:64-i128:128-f80:128-n8:16:32:64-S128"
target triple = "x86_64-pc-linux-gnu"

%struct.ForEachState = type { ptr, i32 }
%struct.QualCost = type { double, double }
%struct.List = type { i32, i32, i32, ptr, [0 x %union.ListCell] }
%union.ListCell = type { ptr }
%struct.RestrictInfo = type { i32, ptr, i8, i8, i8, i8, i8, i8, i32, i32, i32, ptr, ptr, ptr, ptr, ptr, ptr, ptr, i32, ptr, %struct.QualCost, double, double, ptr, ptr, ptr, ptr, ptr, ptr, i8, i32, double, double, double, double, i32, i32 }
%struct.IndexClause = type { i32, ptr, ptr, i8, i16, ptr }

; Function Attrs: inlinehint nounwind uwtable
define internal ptr @list_nth_cell(ptr noundef %0, i32 noundef %1) #4 {
  %3 = alloca ptr, align 8
  %4 = alloca i32, align 4
  store ptr %0, ptr %3, align 8
  store i32 %1, ptr %4, align 4
  %5 = load ptr, ptr %3, align 8
  %6 = getelementptr inbounds nuw %struct.List, ptr %5, i32 0, i32 3
  %7 = load ptr, ptr %6, align 8
  %8 = load i32, ptr %4, align 4
  %9 = sext i32 %8 to i64
  %10 = getelementptr inbounds %union.ListCell, ptr %7, i64 %9
  ret ptr %10
}

; Function Attrs: nounwind uwtable
define internal zeroext i1 @eclass_already_used(ptr noundef %0, ptr noundef %1, ptr noundef %2) #0 {
  %4 = alloca i1, align 1
  %5 = alloca ptr, align 8
  %6 = alloca ptr, align 8
  %7 = alloca ptr, align 8
  %8 = alloca ptr, align 8
  %9 = alloca %struct.ForEachState, align 8
  %10 = alloca i32, align 4
  %11 = alloca ptr, align 8
  %12 = alloca ptr, align 8
  store ptr %0, ptr %5, align 8
  store ptr %1, ptr %6, align 8
  store ptr %2, ptr %7, align 8
  call void @llvm.lifetime.start.p0(i64 8, ptr %8) #7
  call void @llvm.lifetime.start.p0(i64 16, ptr %9) #7
  %13 = getelementptr inbounds nuw %struct.ForEachState, ptr %9, i32 0, i32 0
  %14 = load ptr, ptr %7, align 8
  store ptr %14, ptr %13, align 8
  %15 = getelementptr inbounds nuw %struct.ForEachState, ptr %9, i32 0, i32 1
  store i32 0, ptr %15, align 8
  %16 = getelementptr i8, ptr %9, i64 12
  call void @llvm.memset.p0.i64(ptr align 4 %16, i8 0, i64 4, i1 false)
  br label %17

17:                                               ; preds = %65, %3
  %18 = getelementptr inbounds nuw %struct.ForEachState, ptr %9, i32 0, i32 0
  %19 = load ptr, ptr %18, align 8
  %20 = icmp ne ptr %19, null
  br i1 %20, label %21, label %38

21:                                               ; preds = %17
  %22 = getelementptr inbounds nuw %struct.ForEachState, ptr %9, i32 0, i32 1
  %23 = load i32, ptr %22, align 8
  %24 = getelementptr inbounds nuw %struct.ForEachState, ptr %9, i32 0, i32 0
  %25 = load ptr, ptr %24, align 8
  %26 = getelementptr inbounds nuw %struct.List, ptr %25, i32 0, i32 1
  %27 = load i32, ptr %26, align 4
  %28 = icmp slt i32 %23, %27
  br i1 %28, label %29, label %38

29:                                               ; preds = %21
  %30 = getelementptr inbounds nuw %struct.ForEachState, ptr %9, i32 0, i32 0
  %31 = load ptr, ptr %30, align 8
  %32 = getelementptr inbounds nuw %struct.List, ptr %31, i32 0, i32 3
  %33 = load ptr, ptr %32, align 8
  %34 = getelementptr inbounds nuw %struct.ForEachState, ptr %9, i32 0, i32 1
  %35 = load i32, ptr %34, align 8
  %36 = sext i32 %35 to i64
  %37 = getelementptr inbounds %union.ListCell, ptr %33, i64 %36
  store ptr %37, ptr %8, align 8
  br label %39

38:                                               ; preds = %21, %17
  store ptr null, ptr %8, align 8
  br label %39

39:                                               ; preds = %38, %29
  %40 = phi i32 [ 1, %29 ], [ 0, %38 ]
  %41 = icmp ne i32 %40, 0
  br i1 %41, label %43, label %42

42:                                               ; preds = %39
  store i32 2, ptr %10, align 4
  br label %69

43:                                               ; preds = %39
  call void @llvm.lifetime.start.p0(i64 8, ptr %11) #7
  %44 = load ptr, ptr %8, align 8
  %45 = load ptr, ptr %44, align 8
  store ptr %45, ptr %11, align 8
  call void @llvm.lifetime.start.p0(i64 8, ptr %12) #7
  %46 = load ptr, ptr %11, align 8
  %47 = getelementptr inbounds nuw %struct.IndexClause, ptr %46, i32 0, i32 1
  %48 = load ptr, ptr %47, align 8
  store ptr %48, ptr %12, align 8
  %49 = load ptr, ptr %12, align 8
  %50 = getelementptr inbounds nuw %struct.RestrictInfo, ptr %49, i32 0, i32 19
  %51 = load ptr, ptr %50, align 8
  %52 = load ptr, ptr %5, align 8
  %53 = icmp eq ptr %51, %52
  br i1 %53, label %54, label %61

54:                                               ; preds = %43
  %55 = load ptr, ptr %12, align 8
  %56 = getelementptr inbounds nuw %struct.RestrictInfo, ptr %55, i32 0, i32 11
  %57 = load ptr, ptr %56, align 8
  %58 = load ptr, ptr %6, align 8
  %59 = call zeroext i1 @bms_is_subset(ptr noundef %57, ptr noundef %58)
  br i1 %59, label %60, label %61

60:                                               ; preds = %54
  store i1 true, ptr %4, align 1
  store i32 1, ptr %10, align 4
  br label %62

61:                                               ; preds = %54, %43
  store i32 0, ptr %10, align 4
  br label %62

62:                                               ; preds = %61, %60
  call void @llvm.lifetime.end.p0(i64 8, ptr %12) #7
  call void @llvm.lifetime.end.p0(i64 8, ptr %11) #7
  %63 = load i32, ptr %10, align 4
  switch i32 %63, label %69 [
    i32 0, label %64
  ]

64:                                               ; preds = %62
  br label %65

65:                                               ; preds = %64
  %66 = getelementptr inbounds nuw %struct.ForEachState, ptr %9, i32 0, i32 1
  %67 = load i32, ptr %66, align 8
  %68 = add i32 %67, 1
  store i32 %68, ptr %66, align 8
  br label %17, !llvm.loop !39

69:                                               ; preds = %62, %42
  call void @llvm.lifetime.end.p0(i64 16, ptr %9) #7
  %70 = load i32, ptr %10, align 4
  switch i32 %70, label %72 [
    i32 2, label %71
  ]

71:                                               ; preds = %69
  store i1 false, ptr %4, align 1
  store i32 1, ptr %10, align 4
  br label %72

72:                                               ; preds = %71, %69
  call void @llvm.lifetime.end.p0(i64 8, ptr %8) #7
  %73 = load i1, ptr %4, align 1
  ret i1 %73
}

; Function Attrs: inlinehint nounwind uwtable
define internal ptr @list_nth(ptr noundef %0, i32 noundef %1) #4 {
  %3 = alloca ptr, align 8
  %4 = alloca i32, align 4
  store ptr %0, ptr %3, align 8
  store i32 %1, ptr %4, align 4
  %5 = load ptr, ptr %3, align 8
  %6 = load i32, ptr %4, align 4
  %7 = call ptr @list_nth_cell(ptr noundef %5, i32 noundef %6)
  %8 = load ptr, ptr %7, align 8
  ret ptr %8
}

; Function Attrs: inlinehint nounwind uwtable
define internal i32 @list_length(ptr noundef %0) #4 {
  %2 = alloca ptr, align 8
  store ptr %0, ptr %2, align 8
  %3 = load ptr, ptr %2, align 8
  %4 = icmp ne ptr %3, null
  br i1 %4, label %5, label %9

5:                                                ; preds = %1
  %6 = load ptr, ptr %2, align 8
  %7 = getelementptr inbounds nuw %struct.List, ptr %6, i32 0, i32 1
  %8 = load i32, ptr %7, align 4
  br label %10

9:                                                ; preds = %1
  br label %10

10:                                               ; preds = %9, %5
  %11 = phi i32 [ %8, %5 ], [ 0, %9 ]
  ret i32 %11
}

; Function Attrs: nounwind uwtable
define internal void @consider_index_join_outer_rels(ptr noundef %0, ptr noundef %1, ptr noundef %2, ptr noundef %3, ptr noundef %4, ptr noundef %5, ptr noundef %6, ptr noundef %7, i32 noundef %8, ptr noundef %9) #0 {
  %11 = alloca ptr, align 8
  %12 = alloca ptr, align 8
  %13 = alloca ptr, align 8
  %14 = alloca ptr, align 8
  %15 = alloca ptr, align 8
  %16 = alloca ptr, align 8
  %17 = alloca ptr, align 8
  %18 = alloca ptr, align 8
  %19 = alloca i32, align 4
  %20 = alloca ptr, align 8
  %21 = alloca ptr, align 8
  %22 = alloca %struct.ForEachState, align 8
  %23 = alloca i32, align 4
  %24 = alloca ptr, align 8
  %25 = alloca ptr, align 8
  %26 = alloca ptr, align 8
  %27 = alloca i32, align 4
  %28 = alloca i32, align 4
  %29 = alloca ptr, align 8
  store ptr %0, ptr %11, align 8
  store ptr %1, ptr %12, align 8
  store ptr %2, ptr %13, align 8
  store ptr %3, ptr %14, align 8
  store ptr %4, ptr %15, align 8
  store ptr %5, ptr %16, align 8
  store ptr %6, ptr %17, align 8
  store ptr %7, ptr %18, align 8
  store i32 %8, ptr %19, align 4
  store ptr %9, ptr %20, align 8
  call void @llvm.lifetime.start.p0(i64 8, ptr %21) #7
  call void @llvm.lifetime.start.p0(i64 16, ptr %22) #7
  %30 = getelementptr inbounds nuw %struct.ForEachState, ptr %22, i32 0, i32 0
  %31 = load ptr, ptr %18, align 8
  store ptr %31, ptr %30, align 8
  %32 = getelementptr inbounds nuw %struct.ForEachState, ptr %22, i32 0, i32 1
  store i32 0, ptr %32, align 8
  %33 = getelementptr i8, ptr %22, i64 12
  call void @llvm.memset.p0.i64(ptr align 4 %33, i8 0, i64 4, i1 false)
  br label %34

34:                                               ; preds = %146, %10
  %35 = getelementptr inbounds nuw %struct.ForEachState, ptr %22, i32 0, i32 0
  %36 = load ptr, ptr %35, align 8
  %37 = icmp ne ptr %36, null
  br i1 %37, label %38, label %55

38:                                               ; preds = %34
  %39 = getelementptr inbounds nuw %struct.ForEachState, ptr %22, i32 0, i32 1
  %40 = load i32, ptr %39, align 8
  %41 = getelementptr inbounds nuw %struct.ForEachState, ptr %22, i32 0, i32 0
  %42 = load ptr, ptr %41, align 8
  %43 = getelementptr inbounds nuw %struct.List, ptr %42, i32 0, i32 1
  %44 = load i32, ptr %43, align 4
  %45 = icmp slt i32 %40, %44
  br i1 %45, label %46, label %55

46:                                               ; preds = %38
  %47 = getelementptr inbounds nuw %struct.ForEachState, ptr %22, i32 0, i32 0
  %48 = load ptr, ptr %47, align 8
  %49 = getelementptr inbounds nuw %struct.List, ptr %48, i32 0, i32 3
  %50 = load ptr, ptr %49, align 8
  %51 = getelementptr inbounds nuw %struct.ForEachState, ptr %22, i32 0, i32 1
  %52 = load i32, ptr %51, align 8
  %53 = sext i32 %52 to i64
  %54 = getelementptr inbounds %union.ListCell, ptr %50, i64 %53
  store ptr %54, ptr %21, align 8
  br label %56

55:                                               ; preds = %38, %34
  store ptr null, ptr %21, align 8
  br label %56

56:                                               ; preds = %55, %46
  %57 = phi i32 [ 1, %46 ], [ 0, %55 ]
  %58 = icmp ne i32 %57, 0
  br i1 %58, label %60, label %59

59:                                               ; preds = %56
  store i32 2, ptr %23, align 4
  call void @llvm.lifetime.end.p0(i64 16, ptr %22) #7
  br label %150

60:                                               ; preds = %56
  call void @llvm.lifetime.start.p0(i64 8, ptr %24) #7
  %61 = load ptr, ptr %21, align 8
  %62 = load ptr, ptr %61, align 8
  store ptr %62, ptr %24, align 8
  call void @llvm.lifetime.start.p0(i64 8, ptr %25) #7
  %63 = load ptr, ptr %24, align 8
  %64 = getelementptr inbounds nuw %struct.IndexClause, ptr %63, i32 0, i32 1
  %65 = load ptr, ptr %64, align 8
  %66 = getelementptr inbounds nuw %struct.RestrictInfo, ptr %65, i32 0, i32 11
  %67 = load ptr, ptr %66, align 8
  store ptr %67, ptr %25, align 8
  call void @llvm.lifetime.start.p0(i64 8, ptr %26) #7
  %68 = load ptr, ptr %24, align 8
  %69 = getelementptr inbounds nuw %struct.IndexClause, ptr %68, i32 0, i32 1
  %70 = load ptr, ptr %69, align 8
  %71 = getelementptr inbounds nuw %struct.RestrictInfo, ptr %70, i32 0, i32 19
  %72 = load ptr, ptr %71, align 8
  store ptr %72, ptr %26, align 8
  call void @llvm.lifetime.start.p0(i64 4, ptr %27) #7
  %73 = load ptr, ptr %20, align 8
  %74 = load ptr, ptr %73, align 8
  %75 = load ptr, ptr %25, align 8
  %76 = call zeroext i1 @list_member(ptr noundef %74, ptr noundef %75)
  br i1 %76, label %77, label %78

77:                                               ; preds = %60
  store i32 4, ptr %23, align 4
  br label %143

78:                                               ; preds = %60
  %79 = load ptr, ptr %20, align 8
  %80 = load ptr, ptr %79, align 8
  %81 = call i32 @list_length(ptr noundef %80)
  store i32 %81, ptr %27, align 4
  call void @llvm.lifetime.start.p0(i64 4, ptr %28) #7
  store i32 0, ptr %28, align 4
  br label %82

82:                                               ; preds = %129, %78
  %83 = load i32, ptr %28, align 4
  %84 = load i32, ptr %27, align 4
  %85 = icmp slt i32 %83, %84
  br i1 %85, label %87, label %86

86:                                               ; preds = %82
  store i32 5, ptr %23, align 4
  br label %132

87:                                               ; preds = %82
  call void @llvm.lifetime.start.p0(i64 8, ptr %29) #7
  %88 = load ptr, ptr %20, align 8
  %89 = load ptr, ptr %88, align 8
  %90 = load i32, ptr %28, align 4
  %91 = call ptr @list_nth(ptr noundef %89, i32 noundef %90)
  store ptr %91, ptr %29, align 8
  %92 = load ptr, ptr %25, align 8
  %93 = load ptr, ptr %29, align 8
  %94 = call i32 @bms_subset_compare(ptr noundef %92, ptr noundef %93)
  %95 = icmp ne i32 %94, 3
  br i1 %95, label %96, label %97

96:                                               ; preds = %87
  store i32 7, ptr %23, align 4
  br label %126

97:                                               ; preds = %87
  %98 = load ptr, ptr %26, align 8
  %99 = icmp ne ptr %98, null
  br i1 %99, label %100, label %106

100:                                              ; preds = %97
  %101 = load ptr, ptr %26, align 8
  %102 = load ptr, ptr %29, align 8
  %103 = load ptr, ptr %18, align 8
  %104 = call zeroext i1 @eclass_already_used(ptr noundef %101, ptr noundef %102, ptr noundef %103)
  br i1 %104, label %105, label %106

105:                                              ; preds = %100
  store i32 7, ptr %23, align 4
  br label %126

106:                                              ; preds = %100, %97
  %107 = load ptr, ptr %20, align 8
  %108 = load ptr, ptr %107, align 8
  %109 = call i32 @list_length(ptr noundef %108)
  %110 = load i32, ptr %19, align 4
  %111 = mul i32 10, %110
  %112 = icmp sge i32 %109, %111
  br i1 %112, label %113, label %114

113:                                              ; preds = %106
  store i32 5, ptr %23, align 4
  br label %126

114:                                              ; preds = %106
  %115 = load ptr, ptr %11, align 8
  %116 = load ptr, ptr %12, align 8
  %117 = load ptr, ptr %13, align 8
  %118 = load ptr, ptr %14, align 8
  %119 = load ptr, ptr %15, align 8
  %120 = load ptr, ptr %16, align 8
  %121 = load ptr, ptr %17, align 8
  %122 = load ptr, ptr %25, align 8
  %123 = load ptr, ptr %29, align 8
  %124 = call ptr @bms_union(ptr noundef %122, ptr noundef %123)
  %125 = load ptr, ptr %20, align 8
  call void @get_join_index_paths(ptr noundef %115, ptr noundef %116, ptr noundef %117, ptr noundef %118, ptr noundef %119, ptr noundef %120, ptr noundef %121, ptr noundef %124, ptr noundef %125)
  store i32 0, ptr %23, align 4
  br label %126

126:                                              ; preds = %114, %113, %105, %96
  call void @llvm.lifetime.end.p0(i64 8, ptr %29) #7
  %127 = load i32, ptr %23, align 4
  switch i32 %127, label %132 [
    i32 0, label %128
    i32 7, label %129
  ]

128:                                              ; preds = %126
  br label %129

129:                                              ; preds = %128, %126
  %130 = load i32, ptr %28, align 4
  %131 = add i32 %130, 1
  store i32 %131, ptr %28, align 4
  br label %82, !llvm.loop !37

132:                                              ; preds = %126, %86
  call void @llvm.lifetime.end.p0(i64 4, ptr %28) #7
  br label %133

133:                                              ; preds = %132
  %134 = load ptr, ptr %11, align 8
  %135 = load ptr, ptr %12, align 8
  %136 = load ptr, ptr %13, align 8
  %137 = load ptr, ptr %14, align 8
  %138 = load ptr, ptr %15, align 8
  %139 = load ptr, ptr %16, align 8
  %140 = load ptr, ptr %17, align 8
  %141 = load ptr, ptr %25, align 8
  %142 = load ptr, ptr %20, align 8
  call void @get_join_index_paths(ptr noundef %134, ptr noundef %135, ptr noundef %136, ptr noundef %137, ptr noundef %138, ptr noundef %139, ptr noundef %140, ptr noundef %141, ptr noundef %142)
  store i32 0, ptr %23, align 4
  br label %143

143:                                              ; preds = %133, %77
  call void @llvm.lifetime.end.p0(i64 4, ptr %27) #7
  call void @llvm.lifetime.end.p0(i64 8, ptr %26) #7
  call void @llvm.lifetime.end.p0(i64 8, ptr %25) #7
  call void @llvm.lifetime.end.p0(i64 8, ptr %24) #7
  %144 = load i32, ptr %23, align 4
  switch i32 %144, label %151 [
    i32 0, label %145
    i32 4, label %146
  ]

145:                                              ; preds = %143
  br label %146

146:                                              ; preds = %145, %143
  %147 = getelementptr inbounds nuw %struct.ForEachState, ptr %22, i32 0, i32 1
  %148 = load i32, ptr %147, align 8
  %149 = add i32 %148, 1
  store i32 %149, ptr %147, align 8
  br label %34, !llvm.loop !38

150:                                              ; preds = %59
  call void @llvm.lifetime.end.p0(i64 8, ptr %21) #7
  ret void

151:                                              ; preds = %143
  unreachable
}