; Function Attrs: nounwind uwtable
define internal fastcc void @consider_index_join_outer_rels(ptr noundef %0, ptr noundef %1, ptr noundef %2, ptr noundef nonnull readonly captures(none) %3, ptr noundef nonnull readonly captures(none) %4, ptr noundef nonnull readonly captures(none) %5, ptr noundef nonnull captures(none) %6, ptr noundef readonly captures(address_is_null) %7, i32 noundef %8, ptr noundef nonnull captures(none) %9) unnamed_addr #0 {
  %11 = getelementptr inbounds nuw i8, ptr %7, i64 4
  %.not = icmp eq ptr %7, null
  br i1 %.not, label %._crit_edge, label %.lr.ph62

.lr.ph62:                                         ; preds = %10
  %12 = getelementptr inbounds nuw i8, ptr %7, i64 16
  %13 = mul i32 %8, 10
  %14 = load i32, ptr %11, align 4
  %15 = icmp sgt i32 %14, 0
  br i1 %15, label %.lr.ph77, label %._crit_edge

._crit_edge:                                      ; preds = %75, %.lr.ph62, %10
  ret void

.lr.ph77:                                         ; preds = %.lr.ph62, %75
  %indvars.iv7176 = phi i64 [ %indvars.iv.next72, %75 ], [ 0, %.lr.ph62 ]
  %16 = load ptr, ptr %12, align 8
  %17 = getelementptr inbounds nuw %union.ListCell, ptr %16, i64 %indvars.iv7176
  %18 = load ptr, ptr %17, align 8
  %19 = getelementptr inbounds nuw i8, ptr %18, i64 8
  %20 = load ptr, ptr %19, align 8
  %21 = getelementptr inbounds nuw i8, ptr %20, i64 40
  %22 = load ptr, ptr %21, align 8
  %23 = getelementptr inbounds nuw i8, ptr %20, i64 104
  %24 = load ptr, ptr %23, align 8
  %.fr = freeze ptr %24
  %25 = load ptr, ptr %9, align 8
  %26 = tail call zeroext i1 @list_member(ptr noundef %25, ptr noundef %22) #8
  br i1 %26, label %75, label %27

27:                                               ; preds = %.lr.ph77
  %28 = load ptr, ptr %9, align 8
  %.not.i = icmp eq ptr %28, null
  br i1 %.not.i, label %eclass_already_used.exit, label %list_length.exit

list_length.exit:                                 ; preds = %27
  %29 = getelementptr inbounds nuw i8, ptr %28, i64 4
  %30 = load i32, ptr %29, align 4
  %31 = icmp sgt i32 %30, 0
  br i1 %31, label %.lr.ph, label %eclass_already_used.exit

.lr.ph:                                           ; preds = %list_length.exit
  %.not49 = icmp eq ptr %.fr, null
  %wide.trip.count69 = zext nneg i32 %30 to i64
  br i1 %.not49, label %.lr.ph.split.us, label %.lr.ph.split

.lr.ph.split.us:                                  ; preds = %.lr.ph, %44
  %indvars.iv66 = phi i64 [ %indvars.iv.next67, %44 ], [ 0, %.lr.ph ]
  %32 = load ptr, ptr %9, align 8
  %33 = getelementptr i8, ptr %32, i64 16
  %.val.us = load ptr, ptr %33, align 8
  %34 = getelementptr inbounds nuw %union.ListCell, ptr %.val.us, i64 %indvars.iv66
  %35 = load ptr, ptr %34, align 8
  %36 = tail call i32 @bms_subset_compare(ptr noundef %22, ptr noundef %35) #8
  %.not48.us = icmp eq i32 %36, 3
  br i1 %.not48.us, label %eclass_already_used.exit.thread.us, label %44

eclass_already_used.exit.thread.us:               ; preds = %.lr.ph.split.us
  %37 = load ptr, ptr %9, align 8
  %.not.i52.us = icmp eq ptr %37, null
  br i1 %.not.i52.us, label %list_length.exit53.us, label %38

38:                                               ; preds = %eclass_already_used.exit.thread.us
  %39 = getelementptr inbounds nuw i8, ptr %37, i64 4
  %40 = load i32, ptr %39, align 4
  br label %list_length.exit53.us

list_length.exit53.us:                            ; preds = %38, %eclass_already_used.exit.thread.us
  %41 = phi i32 [ %40, %38 ], [ 0, %eclass_already_used.exit.thread.us ]
  %.not50.us = icmp slt i32 %41, %13
  br i1 %.not50.us, label %42, label %eclass_already_used.exit

42:                                               ; preds = %list_length.exit53.us
  %43 = tail call ptr @bms_union(ptr noundef %22, ptr noundef %35) #8
  tail call fastcc void @get_join_index_paths(ptr noundef %0, ptr noundef %1, ptr noundef %2, ptr noundef %3, ptr noundef %4, ptr noundef %5, ptr noundef %6, ptr noundef %43, ptr noundef %9)
  br label %44

44:                                               ; preds = %42, %.lr.ph.split.us
  %indvars.iv.next67 = add nuw nsw i64 %indvars.iv66, 1
  %exitcond70.not = icmp eq i64 %indvars.iv.next67, %wide.trip.count69
  br i1 %exitcond70.not, label %eclass_already_used.exit, label %.lr.ph.split.us, !llvm.loop !23

.lr.ph.split:                                     ; preds = %.lr.ph, %.loopexit
  %indvars.iv = phi i64 [ %indvars.iv.next, %.loopexit ], [ 0, %.lr.ph ]
  %45 = load ptr, ptr %9, align 8
  %46 = getelementptr i8, ptr %45, i64 16
  %.val = load ptr, ptr %46, align 8
  %47 = getelementptr inbounds nuw %union.ListCell, ptr %.val, i64 %indvars.iv
  %48 = load ptr, ptr %47, align 8
  %49 = tail call i32 @bms_subset_compare(ptr noundef %22, ptr noundef %48) #8
  %.not48 = icmp eq i32 %49, 3
  br i1 %.not48, label %.lr.ph.i, label %.loopexit

.lr.ph.i:                                         ; preds = %.lr.ph.split
  %50 = load i32, ptr %11, align 4
  %51 = icmp sgt i32 %50, 0
  br i1 %51, label %.lr.ph32.i, label %eclass_already_used.exit.thread

.lr.ph32.i:                                       ; preds = %.lr.ph.i, %.critedge.i
  %52 = phi i32 [ %65, %.critedge.i ], [ %50, %.lr.ph.i ]
  %indvars.iv.i = phi i64 [ %indvars.iv.next.i, %.critedge.i ], [ 0, %.lr.ph.i ]
  %53 = load ptr, ptr %12, align 8
  %54 = getelementptr inbounds nuw %union.ListCell, ptr %53, i64 %indvars.iv.i
  %55 = load ptr, ptr %54, align 8
  %56 = getelementptr inbounds nuw i8, ptr %55, i64 8
  %57 = load ptr, ptr %56, align 8
  %58 = getelementptr inbounds nuw i8, ptr %57, i64 104
  %59 = load ptr, ptr %58, align 8
  %60 = icmp eq ptr %59, %.fr
  br i1 %60, label %61, label %.critedge.i

61:                                               ; preds = %.lr.ph32.i
  %62 = getelementptr inbounds nuw i8, ptr %57, i64 40
  %63 = load ptr, ptr %62, align 8
  %64 = tail call zeroext i1 @bms_is_subset(ptr noundef %63, ptr noundef %48) #8
  br i1 %64, label %.loopexit, label %..critedge_crit_edge.i

..critedge_crit_edge.i:                           ; preds = %61
  %.pre.i = load i32, ptr %11, align 4
  br label %.critedge.i

.critedge.i:                                      ; preds = %..critedge_crit_edge.i, %.lr.ph32.i
  %65 = phi i32 [ %.pre.i, %..critedge_crit_edge.i ], [ %52, %.lr.ph32.i ]
  %indvars.iv.next.i = add nuw nsw i64 %indvars.iv.i, 1
  %66 = sext i32 %65 to i64
  %67 = icmp slt i64 %indvars.iv.next.i, %66
  br i1 %67, label %.lr.ph32.i, label %eclass_already_used.exit.thread

eclass_already_used.exit.thread:                  ; preds = %.critedge.i, %.lr.ph.i
  %68 = load ptr, ptr %9, align 8
  %.not.i52 = icmp eq ptr %68, null
  br i1 %.not.i52, label %list_length.exit53, label %69

69:                                               ; preds = %eclass_already_used.exit.thread
  %70 = getelementptr inbounds nuw i8, ptr %68, i64 4
  %71 = load i32, ptr %70, align 4
  br label %list_length.exit53

list_length.exit53:                               ; preds = %eclass_already_used.exit.thread, %69
  %72 = phi i32 [ %71, %69 ], [ 0, %eclass_already_used.exit.thread ]
  %.not50 = icmp slt i32 %72, %13
  br i1 %.not50, label %73, label %eclass_already_used.exit

73:                                               ; preds = %list_length.exit53
  %74 = tail call ptr @bms_union(ptr noundef %22, ptr noundef %48) #8
  tail call fastcc void @get_join_index_paths(ptr noundef %0, ptr noundef %1, ptr noundef %2, ptr noundef %3, ptr noundef %4, ptr noundef %5, ptr noundef %6, ptr noundef %74, ptr noundef %9)
  br label %.loopexit

.loopexit:                                        ; preds = %61, %73, %.lr.ph.split
  %indvars.iv.next = add nuw nsw i64 %indvars.iv, 1
  %exitcond.not = icmp eq i64 %indvars.iv.next, %wide.trip.count69
  br i1 %exitcond.not, label %eclass_already_used.exit, label %.lr.ph.split, !llvm.loop !23

eclass_already_used.exit:                         ; preds = %.loopexit, %list_length.exit53, %44, %list_length.exit53.us, %27, %list_length.exit
  tail call fastcc void @get_join_index_paths(ptr noundef %0, ptr noundef %1, ptr noundef %2, ptr noundef %3, ptr noundef %4, ptr noundef %5, ptr noundef %6, ptr noundef %22, ptr noundef %9)
  br label %75

75:                                               ; preds = %.lr.ph77, %eclass_already_used.exit
  %indvars.iv.next72 = add nuw nsw i64 %indvars.iv7176, 1
  %76 = load i32, ptr %11, align 4
  %77 = sext i32 %76 to i64
  %78 = icmp slt i64 %indvars.iv.next72, %77
  br i1 %78, label %.lr.ph77, label %._crit_edge
}